; Function Attrs: nounwind uwtable
define void @Aig_ManDeriveCounterExample(ptr noundef captures(none) %0, ptr noundef readonly captures(none) %1, ptr noundef %2) local_unnamed_addr #2 {
  %4 = getelementptr i8, ptr %0, i64 136
  %.val16 = load i32, ptr %4, align 8, !tbaa !35
  %5 = tail call noalias dereferenceable_or_null(16) ptr @malloc(i64 noundef 16) #17
  %6 = add i32 %.val16, -1
  %or.cond.i = icmp ult i32 %6, 15
  %spec.store.select.i = select i1 %or.cond.i, i32 16, i32 %.val16
  %7 = getelementptr inbounds nuw i8, ptr %5, i64 4
  store i32 0, ptr %7, align 4, !tbaa !26
  store i32 %spec.store.select.i, ptr %5, align 8, !tbaa !23
  %.not.i = icmp eq i32 %spec.store.select.i, 0
  br i1 %.not.i, label %Vec_IntAlloc.exit, label %8

8:                                                ; preds = %3
  %9 = sext i32 %spec.store.select.i to i64
  %10 = shl nsw i64 %9, 2
  %11 = tail call noalias ptr @malloc(i64 noundef %10) #17
  br label %Vec_IntAlloc.exit

Vec_IntAlloc.exit:                                ; preds = %3, %8
  %12 = phi ptr [ %11, %8 ], [ null, %3 ]
  %13 = getelementptr inbounds nuw i8, ptr %5, i64 8
  store ptr %12, ptr %13, align 8, !tbaa !25
  %14 = getelementptr inbounds nuw i8, ptr %0, i64 16
  %15 = load ptr, ptr %14, align 8, !tbaa !62
  %16 = getelementptr i8, ptr %15, i64 4
  %.val18 = load i32, ptr %16, align 4, !tbaa !21
  %17 = icmp sgt i32 %.val18, 0
  br i1 %17, label %.lr.ph, label %.critedge

.lr.ph:                                           ; preds = %Vec_IntAlloc.exit
  %18 = getelementptr i8, ptr %1, i64 8
  br label %19

19:                                               ; preds = %.lr.ph, %Vec_IntPush.exit
  %20 = phi ptr [ %12, %.lr.ph ], [ %.pre.i22, %Vec_IntPush.exit ]
  %indvars.iv = phi i64 [ 0, %.lr.ph ], [ %indvars.iv.next, %Vec_IntPush.exit ]
  %21 = phi ptr [ %15, %.lr.ph ], [ %50, %Vec_IntPush.exit ]
  %22 = getelementptr i8, ptr %21, i64 8
  %.val13 = load ptr, ptr %22, align 8, !tbaa !33
  %23 = getelementptr inbounds nuw ptr, ptr %.val13, i64 %indvars.iv
  %24 = load ptr, ptr %23, align 8, !tbaa !32
  %25 = getelementptr i8, ptr %24, i64 36
  %.val14 = load i32, ptr %25, align 4, !tbaa !34
  %.val15 = load ptr, ptr %18, align 8, !tbaa !25
  %26 = sext i32 %.val14 to i64
  %27 = getelementptr inbounds i32, ptr %.val15, i64 %26
  %28 = load i32, ptr %27, align 4, !tbaa !35
  %29 = load i32, ptr %7, align 4, !tbaa !26
  %30 = load i32, ptr %5, align 8, !tbaa !23
  %31 = icmp eq i32 %29, %30
  br i1 %31, label %32, label %Vec_IntPush.exit

32:                                               ; preds = %19
  %33 = icmp slt i32 %29, 16
  br i1 %33, label %34, label %39

34:                                               ; preds = %32
  %.not9.i.i = icmp eq ptr %20, null
  br i1 %.not9.i.i, label %37, label %35

35:                                               ; preds = %34
  %36 = tail call dereferenceable_or_null(64) ptr @realloc(ptr noundef nonnull %20, i64 noundef 64) #19
  br label %Vec_IntPush.exit.sink.split

37:                                               ; preds = %34
  %38 = tail call noalias dereferenceable_or_null(64) ptr @malloc(i64 noundef 64) #17
  br label %Vec_IntPush.exit.sink.split

39:                                               ; preds = %32
  %40 = shl nuw nsw i32 %29, 1
  %.not9.i9.i = icmp eq ptr %20, null
  %41 = zext nneg i32 %40 to i64
  %42 = shl nuw nsw i64 %41, 2
  br i1 %.not9.i9.i, label %45, label %43

43:                                               ; preds = %39
  %44 = tail call ptr @realloc(ptr noundef nonnull %20, i64 noundef %42) #19
  br label %Vec_IntPush.exit.sink.split

45:                                               ; preds = %39
  %46 = tail call noalias ptr @malloc(i64 noundef %42) #17
  br label %Vec_IntPush.exit.sink.split

Vec_IntPush.exit.sink.split:                      ; preds = %43, %45, %35, %37
  %.sink24 = phi ptr [ %36, %35 ], [ %38, %37 ], [ %44, %43 ], [ %46, %45 ]
  %.sink = phi i32 [ 16, %35 ], [ 16, %37 ], [ %40, %43 ], [ %40, %45 ]
  store ptr %.sink24, ptr %13, align 8, !tbaa !25
  store i32 %.sink, ptr %5, align 8, !tbaa !23
  br label %Vec_IntPush.exit

Vec_IntPush.exit:                                 ; preds = %Vec_IntPush.exit.sink.split, %19
  %.pre.i22 = phi ptr [ %20, %19 ], [ %.sink24, %Vec_IntPush.exit.sink.split ]
  %47 = add nsw i32 %29, 1
  store i32 %47, ptr %7, align 4, !tbaa !26
  %48 = sext i32 %29 to i64
  %49 = getelementptr inbounds i32, ptr %.pre.i22, i64 %48
  store i32 %28, ptr %49, align 4, !tbaa !35
  %indvars.iv.next = add nuw nsw i64 %indvars.iv, 1
  %50 = load ptr, ptr %14, align 8, !tbaa !62
  %51 = getelementptr i8, ptr %50, i64 4
  %.val = load i32, ptr %51, align 4, !tbaa !21
  %52 = sext i32 %.val to i64
  %53 = icmp slt i64 %indvars.iv.next, %52
  br i1 %53, label %19, label %.critedge.thread, !llvm.loop !67

.critedge.thread:                                 ; preds = %Vec_IntPush.exit
  %.pre = load i32, ptr %7, align 4, !tbaa !26
  %54 = tail call ptr @Sat_SolverGetModel(ptr noundef %2, ptr noundef nonnull %.pre.i22, i32 noundef %.pre) #18
  %55 = getelementptr inbounds nuw i8, ptr %0, i64 296
  store ptr %54, ptr %55, align 8, !tbaa !68
  br label %58

.critedge:                                        ; preds = %Vec_IntAlloc.exit
  %56 = tail call ptr @Sat_SolverGetModel(ptr noundef %2, ptr noundef %12, i32 noundef 0) #18
  %57 = getelementptr inbounds nuw i8, ptr %0, i64 296
  store ptr %56, ptr %57, align 8, !tbaa !68
  %.not.i17 = icmp eq ptr %12, null
  br i1 %.not.i17, label %Vec_IntFree.exit, label %58

58:                                               ; preds = %.critedge.thread, %.critedge
  %59 = phi ptr [ %.pre.i22, %.critedge.thread ], [ %12, %.critedge ]
  tail call void @free(ptr noundef nonnull %59) #18
  br label %Vec_IntFree.exit

Vec_IntFree.exit:                                 ; preds = %.critedge, %58
  tail call void @free(ptr noundef nonnull %5) #18
  ret void
}